; Function Attrs: nofree norecurse nosync nounwind memory(argmem: readwrite) uwtable
define internal void @idct_iadst_4x4_add_c(ptr noundef captures(none) %0, i64 noundef %1, ptr noundef captures(none) %2, i32 %3) #2 {
  %5 = alloca [16 x i32], align 16
  %6 = alloca [4 x i32], align 16
  call void @llvm.lifetime.start.p0(i64 64, ptr nonnull %5) #12
  call void @llvm.lifetime.start.p0(i64 16, ptr nonnull %6) #12
  br label %7

7:                                                ; preds = %4, %7
  %indvars.iv = phi i64 [ 0, %4 ], [ %indvars.iv.next, %7 ]
  %8 = getelementptr inbounds nuw i32, ptr %2, i64 %indvars.iv
  %.idx = shl nuw nsw i64 %indvars.iv, 4
  %9 = getelementptr inbounds nuw i8, ptr %5, i64 %.idx
  %10 = load i32, ptr %8, align 4, !tbaa !151
  %11 = sext i32 %10 to i64
  %12 = getelementptr inbounds nuw i8, ptr %8, i64 32
  %13 = load i32, ptr %12, align 4, !tbaa !151
  %14 = sext i32 %13 to i64
  %15 = add nsw i64 %14, %11
  %16 = mul nsw i64 %15, 11585
  %17 = add nsw i64 %16, 8192
  %18 = ashr i64 %17, 14
  %19 = sub nsw i64 %11, %14
  %20 = mul nsw i64 %19, 11585
  %21 = add nsw i64 %20, 8192
  %22 = ashr i64 %21, 14
  %23 = getelementptr inbounds nuw i8, ptr %8, i64 16
  %24 = load i32, ptr %23, align 4, !tbaa !151
  %25 = sext i32 %24 to i64
  %26 = mul nsw i64 %25, 6270
  %27 = getelementptr inbounds nuw i8, ptr %8, i64 48
  %28 = load i32, ptr %27, align 4, !tbaa !151
  %29 = sext i32 %28 to i64
  %.neg.i = mul nsw i64 %29, -15137
  %30 = add nsw i64 %26, 8192
  %31 = add nsw i64 %30, %.neg.i
  %32 = ashr i64 %31, 14
  %33 = mul nsw i64 %25, 15137
  %34 = mul nsw i64 %29, 6270
  %35 = add nsw i64 %33, 8192
  %36 = add nsw i64 %35, %34
  %37 = ashr i64 %36, 14
  %38 = add nsw i64 %37, %18
  %39 = trunc i64 %38 to i32
  store i32 %39, ptr %9, align 16, !tbaa !151
  %40 = add nsw i64 %32, %22
  %41 = trunc i64 %40 to i32
  %42 = getelementptr inbounds nuw i8, ptr %9, i64 4
  store i32 %41, ptr %42, align 4, !tbaa !151
  %43 = sub nsw i64 %22, %32
  %44 = trunc i64 %43 to i32
  %45 = getelementptr inbounds nuw i8, ptr %9, i64 8
  store i32 %44, ptr %45, align 8, !tbaa !151
  %46 = sub nsw i64 %18, %37
  %47 = trunc i64 %46 to i32
  %48 = getelementptr inbounds nuw i8, ptr %9, i64 12
  store i32 %47, ptr %48, align 4, !tbaa !151
  %indvars.iv.next = add nuw nsw i64 %indvars.iv, 1
  %exitcond.not = icmp eq i64 %indvars.iv.next, 4
  br i1 %exitcond.not, label %49, label %7, !llvm.loop !161

49:                                               ; preds = %7
  %50 = lshr i64 %1, 1
  tail call void @llvm.memset.p0.i64(ptr noundef nonnull align 4 dereferenceable(64) %2, i8 0, i64 64, i1 false)
  %51 = getelementptr inbounds nuw i8, ptr %6, i64 4
  %52 = getelementptr inbounds nuw i8, ptr %6, i64 8
  %53 = getelementptr inbounds nuw i8, ptr %6, i64 12
  br label %54

54:                                               ; preds = %49, %107
  %indvars.iv34 = phi i64 [ 0, %49 ], [ %indvars.iv.next35, %107 ]
  %.028 = phi ptr [ %0, %49 ], [ %108, %107 ]
  %55 = getelementptr inbounds nuw i32, ptr %5, i64 %indvars.iv34
  %56 = load i32, ptr %55, align 4, !tbaa !151
  %57 = sext i32 %56 to i64
  %58 = mul nsw i64 %57, 5283
  %59 = getelementptr inbounds nuw i8, ptr %55, i64 32
  %60 = load i32, ptr %59, align 4, !tbaa !151
  %61 = sext i32 %60 to i64
  %62 = mul nsw i64 %61, 15212
  %63 = add nsw i64 %62, %58
  %64 = getelementptr inbounds nuw i8, ptr %55, i64 48
  %65 = load i32, ptr %64, align 4, !tbaa !151
  %66 = sext i32 %65 to i64
  %67 = mul nsw i64 %66, 9929
  %68 = add nsw i64 %63, %67
  %69 = mul nsw i64 %57, 9929
  %.neg.i23 = mul nsw i64 %61, -5283
  %70 = add nsw i64 %.neg.i23, %69
  %.neg31.i = mul nsw i64 %66, -15212
  %71 = add nsw i64 %70, %.neg31.i
  %72 = sub nsw i64 %57, %61
  %73 = add nsw i64 %72, %66
  %74 = mul nsw i64 %73, 13377
  %75 = getelementptr inbounds nuw i8, ptr %55, i64 16
  %76 = load i32, ptr %75, align 4, !tbaa !151
  %77 = sext i32 %76 to i64
  %78 = mul nsw i64 %77, 13377
  %79 = add nsw i64 %78, 8192
  %80 = add nsw i64 %79, %68
  %81 = lshr i64 %80, 14
  %82 = trunc i64 %81 to i32
  store i32 %82, ptr %6, align 16, !tbaa !151
  %83 = add nsw i64 %79, %71
  %84 = lshr i64 %83, 14
  %85 = trunc i64 %84 to i32
  store i32 %85, ptr %51, align 4, !tbaa !151
  %86 = add nsw i64 %74, 8192
  %87 = lshr i64 %86, 14
  %88 = trunc i64 %87 to i32
  store i32 %88, ptr %52, align 8, !tbaa !151
  %89 = add nsw i64 %71, 8192
  %90 = add nsw i64 %89, %68
  %91 = sub nsw i64 %90, %78
  %92 = lshr i64 %91, 14
  %93 = trunc i64 %92 to i32
  store i32 %93, ptr %53, align 4, !tbaa !151
  br label %94

94:                                               ; preds = %54, %94
  %indvars.iv30 = phi i64 [ 0, %54 ], [ %indvars.iv.next31, %94 ]
  %95 = mul nuw nsw i64 %50, %indvars.iv30
  %96 = getelementptr inbounds nuw i16, ptr %.028, i64 %95
  %97 = load i16, ptr %96, align 2, !tbaa !9
  %98 = zext i16 %97 to i32
  %99 = getelementptr inbounds nuw [4 x i32], ptr %6, i64 0, i64 %indvars.iv30
  %100 = load i32, ptr %99, align 4, !tbaa !151
  %101 = add i32 %100, 8
  %102 = ashr i32 %101, 4
  %103 = add nsw i32 %102, %98
  %104 = tail call i32 @llvm.smax.i32(i32 %103, i32 0)
  %105 = tail call i32 @llvm.umin.i32(i32 %104, i32 1023)
  %106 = trunc nuw nsw i32 %105 to i16
  store i16 %106, ptr %96, align 2, !tbaa !9
  %indvars.iv.next31 = add nuw nsw i64 %indvars.iv30, 1
  %exitcond33.not = icmp eq i64 %indvars.iv.next31, 4
  br i1 %exitcond33.not, label %107, label %94, !llvm.loop !162

107:                                              ; preds = %94
  %108 = getelementptr inbounds nuw i8, ptr %.028, i64 2
  %indvars.iv.next35 = add nuw nsw i64 %indvars.iv34, 1
  %exitcond37.not = icmp eq i64 %indvars.iv.next35, 4
  br i1 %exitcond37.not, label %109, label %54, !llvm.loop !163

109:                                              ; preds = %107
  call void @llvm.lifetime.end.p0(i64 16, ptr nonnull %6) #12
  call void @llvm.lifetime.end.p0(i64 64, ptr nonnull %5) #12
  ret void
}